target datalayout = "e-m:e-p270:32:32-p271:32:32-p272:64:64-i64:64-i128:128-f80:128-n8:16:32:64-S128"
target triple = "x86_64-pc-linux-gnu"

%struct.GenContext_ = type { i8, ptr, ptr, ptr, ptr, ptr, ptr, ptr, ptr, ptr, ptr, ptr, ptr, ptr, ptr, ptr, ptr, ptr, ptr, ptr, ptr, ptr, ptr, ptr, ptr, ptr, ptr, ptr, ptr, ptr, ptr, ptr, ptr, %struct.anon.85, i32, i32, %struct.DebugContext, ptr, ptr, ptr, %struct.BEValue, i8, %union.SourceSpan, ptr, ptr, ptr, ptr }
%struct.anon.85 = type { ptr, ptr, ptr }
%struct.DebugContext = type { i16, ptr, ptr, %struct.DebugFile_, ptr, ptr, ptr, ptr }
%struct.DebugFile_ = type { i16, ptr }
%struct.BEValue = type { i8, i32, ptr, ptr, ptr }
%union.SourceSpan = type { i64 }
%struct.VHeader_ = type { i32, i32, [0 x i8] }
%struct.anon = type { i16, i8, i8, i32 }

; Function Attrs: nounwind uwtable
define dso_local ptr @llvm_debug_current_scope(ptr noundef %0) #0 {
  %2 = alloca i32, align 4
  %3 = alloca ptr, align 8
  %4 = alloca ptr, align 8
  %5 = alloca i32, align 4
  %6 = alloca ptr, align 8
  %7 = alloca ptr, align 8
  %8 = alloca ptr, align 8
  %9 = alloca ptr, align 8
  %10 = alloca i32, align 4
  %11 = alloca ptr, align 8
  store ptr %0, ptr %9, align 8
  %12 = load ptr, ptr %9, align 8
  %13 = getelementptr inbounds %struct.GenContext_, ptr %12, i32 0, i32 36
  %14 = getelementptr inbounds %struct.DebugContext, ptr %13, i32 0, i32 6
  %15 = load ptr, ptr %14, align 8
  store ptr %15, ptr %3, align 8
  %16 = load ptr, ptr %3, align 8
  %17 = icmp ne ptr %16, null
  br i1 %17, label %19, label %18

18:                                               ; preds = %1
  store i32 0, ptr %2, align 4
  br label %24

19:                                               ; preds = %1
  %20 = load ptr, ptr %3, align 8
  store ptr %20, ptr %4, align 8
  %21 = load ptr, ptr %4, align 8
  %22 = getelementptr inbounds %struct.VHeader_, ptr %21, i64 -1
  %23 = load i32, ptr %22, align 4
  store i32 %23, ptr %2, align 4
  br label %24

24:                                               ; preds = %19, %18
  %25 = load i32, ptr %2, align 4
  %26 = icmp ugt i32 %25, 0
  br i1 %26, label %27, label %58

27:                                               ; preds = %24
  %28 = load ptr, ptr %9, align 8
  %29 = getelementptr inbounds %struct.GenContext_, ptr %28, i32 0, i32 36
  %30 = getelementptr inbounds %struct.DebugContext, ptr %29, i32 0, i32 6
  %31 = load ptr, ptr %30, align 8
  store ptr %31, ptr %6, align 8
  %32 = load ptr, ptr %6, align 8
  %33 = icmp ne ptr %32, null
  br i1 %33, label %35, label %34

34:                                               ; preds = %27
  store i32 0, ptr %5, align 4
  br label %40

35:                                               ; preds = %27
  %36 = load ptr, ptr %6, align 8
  store ptr %36, ptr %7, align 8
  %37 = load ptr, ptr %7, align 8
  %38 = getelementptr inbounds %struct.VHeader_, ptr %37, i64 -1
  %39 = load i32, ptr %38, align 4
  store i32 %39, ptr %5, align 4
  br label %40

40:                                               ; preds = %35, %34
  %41 = load i32, ptr %5, align 4
  store i32 %41, ptr %10, align 4
  %42 = load i32, ptr %10, align 4
  %43 = icmp ne i32 %42, 0
  br i1 %43, label %44, label %54

44:                                               ; preds = %40
  %45 = load ptr, ptr %9, align 8
  %46 = getelementptr inbounds %struct.GenContext_, ptr %45, i32 0, i32 36
  %47 = getelementptr inbounds %struct.DebugContext, ptr %46, i32 0, i32 6
  %48 = load ptr, ptr %47, align 8
  %49 = load i32, ptr %10, align 4
  %50 = sub i32 %49, 1
  %51 = zext i32 %50 to i64
  %52 = getelementptr inbounds ptr, ptr %48, i64 %51
  %53 = load ptr, ptr %52, align 8
  br label %55

54:                                               ; preds = %40
  br label %55

55:                                               ; preds = %54, %44
  %56 = phi ptr [ %53, %44 ], [ null, %54 ]
  store ptr %56, ptr %11, align 8
  %57 = load ptr, ptr %11, align 8
  store ptr %57, ptr %8, align 8
  br label %63

58:                                               ; preds = %24
  %59 = load ptr, ptr %9, align 8
  %60 = getelementptr inbounds %struct.GenContext_, ptr %59, i32 0, i32 36
  %61 = getelementptr inbounds %struct.DebugContext, ptr %60, i32 0, i32 4
  %62 = load ptr, ptr %61, align 8
  store ptr %62, ptr %8, align 8
  br label %63

63:                                               ; preds = %58, %55
  %64 = load ptr, ptr %8, align 8
  ret ptr %64
}

; Function Attrs: nounwind uwtable
define dso_local void @llvm_emit_debug_location(ptr noundef %0, i64 %1) #0 {
  %3 = alloca ptr, align 8
  %4 = alloca %union.SourceSpan, align 8
  %5 = alloca ptr, align 8
  %6 = alloca ptr, align 8
  %7 = alloca ptr, align 8
  %8 = alloca i32, align 4
  %9 = alloca i32, align 4
  %10 = alloca ptr, align 8
  %11 = getelementptr inbounds %union.SourceSpan, ptr %4, i32 0, i32 0
  store i64 %1, ptr %11, align 8
  store ptr %0, ptr %5, align 8
  %12 = load ptr, ptr %5, align 8
  store ptr %12, ptr %3, align 8
  %13 = load ptr, ptr %3, align 8
  %14 = getelementptr inbounds %struct.GenContext_, ptr %13, i32 0, i32 8
  %15 = load ptr, ptr %14, align 8
  %16 = load ptr, ptr %3, align 8
  %17 = getelementptr inbounds %struct.GenContext_, ptr %16, i32 0, i32 2
  %18 = load ptr, ptr %17, align 8
  %19 = icmp eq ptr %15, %18
  br i1 %19, label %20, label %21

20:                                               ; preds = %2
  br label %69

21:                                               ; preds = %2
  %22 = load ptr, ptr %5, align 8
  %23 = getelementptr inbounds %struct.GenContext_, ptr %22, i32 0, i32 8
  %24 = load ptr, ptr %23, align 8
  %25 = call ptr @LLVMGetCurrentDebugLocation2(ptr noundef %24)
  store ptr %25, ptr %6, align 8
  %26 = load ptr, ptr %6, align 8
  %27 = icmp ne ptr %26, null
  br i1 %27, label %28, label %35

28:                                               ; preds = %21
  %29 = load ptr, ptr %5, align 8
  %30 = getelementptr inbounds %struct.GenContext_, ptr %29, i32 0, i32 42
  %31 = load i64, ptr %30, align 8
  %32 = load i64, ptr %4, align 8
  %33 = icmp eq i64 %31, %32
  br i1 %33, label %34, label %35

34:                                               ; preds = %28
  br label %69

35:                                               ; preds = %28, %21
  %36 = load ptr, ptr %5, align 8
  %37 = call ptr @llvm_debug_current_scope(ptr noundef %36)
  store ptr %37, ptr %7, align 8
  %38 = getelementptr inbounds %struct.anon, ptr %4, i32 0, i32 3
  %39 = load i32, ptr %38, align 4
  store i32 %39, ptr %8, align 4
  %40 = getelementptr inbounds %struct.anon, ptr %4, i32 0, i32 2
  %41 = load i8, ptr %40, align 1
  %42 = zext i8 %41 to i32
  store i32 %42, ptr %9, align 4
  %43 = load i64, ptr %4, align 8
  %44 = load ptr, ptr %5, align 8
  %45 = getelementptr inbounds %struct.GenContext_, ptr %44, i32 0, i32 42
  store i64 %43, ptr %45, align 8
  %46 = load ptr, ptr %5, align 8
  %47 = getelementptr inbounds %struct.GenContext_, ptr %46, i32 0, i32 5
  %48 = load ptr, ptr %47, align 8
  %49 = load i32, ptr %8, align 4
  %50 = icmp ne i32 %49, 0
  br i1 %50, label %51, label %53

51:                                               ; preds = %35
  %52 = load i32, ptr %8, align 4
  br label %54

53:                                               ; preds = %35
  br label %54

54:                                               ; preds = %53, %51
  %55 = phi i32 [ %52, %51 ], [ 1, %53 ]
  %56 = load i32, ptr %9, align 4
  %57 = icmp ne i32 %56, 0
  br i1 %57, label %58, label %60

58:                                               ; preds = %54
  %59 = load i32, ptr %9, align 4
  br label %61

60:                                               ; preds = %54
  br label %61

61:                                               ; preds = %60, %58
  %62 = phi i32 [ %59, %58 ], [ 1, %60 ]
  %63 = load ptr, ptr %7, align 8
  %64 = call ptr @LLVMDIBuilderCreateDebugLocation(ptr noundef %48, i32 noundef %55, i32 noundef %62, ptr noundef %63, ptr noundef null)
  store ptr %64, ptr %10, align 8
  %65 = load ptr, ptr %5, align 8
  %66 = getelementptr inbounds %struct.GenContext_, ptr %65, i32 0, i32 8
  %67 = load ptr, ptr %66, align 8
  %68 = load ptr, ptr %10, align 8
  call void @LLVMSetCurrentDebugLocation2(ptr noundef %67, ptr noundef %68)
  br label %69

69:                                               ; preds = %61, %34, %20
  ret void
}