; Function Attrs: nounwind uwtable
define dso_local void @llvm_emit_debug_location(ptr nocapture noundef %0, i64 %1) local_unnamed_addr #0 {
  %.sroa.4.0.extract.shift = lshr i64 %1, 32
  %.sroa.4.0.extract.trunc = trunc nuw i64 %.sroa.4.0.extract.shift to i32
  %3 = getelementptr inbounds i8, ptr %0, i64 64
  %4 = load ptr, ptr %3, align 8
  %5 = getelementptr inbounds i8, ptr %0, i64 16
  %6 = load ptr, ptr %5, align 8
  %7 = icmp eq ptr %4, %6
  br i1 %7, label %35, label %8

8:                                                ; preds = %2
  %9 = tail call ptr @LLVMGetCurrentDebugLocation2(ptr noundef %4) #8
  %.not = icmp eq ptr %9, null
  br i1 %.not, label %14, label %10

10:                                               ; preds = %8
  %11 = getelementptr inbounds i8, ptr %0, i64 432
  %12 = load i64, ptr %11, align 8
  %13 = icmp eq i64 %12, %1
  br i1 %13, label %35, label %14

14:                                               ; preds = %10, %8
  %15 = getelementptr inbounds i8, ptr %0, i64 352
  %16 = load ptr, ptr %15, align 8
  %.not.i = icmp eq ptr %16, null
  br i1 %.not.i, label %.critedge.i, label %17

17:                                               ; preds = %14
  %18 = getelementptr inbounds i8, ptr %16, i64 -8
  %19 = load i32, ptr %18, align 4
  %20 = icmp eq i32 %19, 0
  br i1 %20, label %.critedge.i, label %21

21:                                               ; preds = %17
  %22 = add i32 %19, -1
  %23 = zext i32 %22 to i64
  %24 = getelementptr inbounds ptr, ptr %16, i64 %23
  br label %llvm_debug_current_scope.exit

.critedge.i:                                      ; preds = %17, %14
  %25 = getelementptr inbounds i8, ptr %0, i64 336
  br label %llvm_debug_current_scope.exit

llvm_debug_current_scope.exit:                    ; preds = %21, %.critedge.i
  %.016.in.i = phi ptr [ %25, %.critedge.i ], [ %24, %21 ]
  %.016.i = load ptr, ptr %.016.in.i, align 8
  %26 = trunc i64 %1 to i32
  %27 = lshr i32 %26, 24
  %28 = getelementptr inbounds i8, ptr %0, i64 432
  store i64 %1, ptr %28, align 8
  %29 = getelementptr inbounds i8, ptr %0, i64 40
  %30 = load ptr, ptr %29, align 8
  %31 = tail call i32 @llvm.umax.i32(i32 %.sroa.4.0.extract.trunc, i32 1)
  %.not31 = icmp ult i32 %26, 16777216
  %32 = select i1 %.not31, i32 1, i32 %27
  %33 = tail call ptr @LLVMDIBuilderCreateDebugLocation(ptr noundef %30, i32 noundef %31, i32 noundef %32, ptr noundef %.016.i, ptr noundef null) #8
  %34 = load ptr, ptr %3, align 8
  tail call void @LLVMSetCurrentDebugLocation2(ptr noundef %34, ptr noundef %33) #8
  br label %35

35:                                               ; preds = %10, %2, %llvm_debug_current_scope.exit
  ret void
}